target datalayout = "e-m:e-p270:32:32-p271:32:32-p272:64:64-i64:64-i128:128-f80:128-n8:16:32:64-S128"
target triple = "x86_64-pc-linux-gnu"

%class.VerificationType = type { %union.anon.2 }
%union.anon.2 = type { ptr }

; Function Attrs: mustprogress nounwind uwtable
define linkonce_odr hidden noundef zeroext i1 @_ZNK16VerificationType16is_category2_2ndEv(ptr noundef nonnull align 8 dereferenceable(8) %0) #1 comdat align 2 {
  %2 = alloca ptr, align 8
  store ptr %0, ptr %2, align 8
  %3 = load ptr, ptr %2, align 8
  %4 = getelementptr inbounds %class.VerificationType, ptr %3, i32 0, i32 0
  %5 = load i64, ptr %4, align 8
  %6 = and i64 %5, 1025
  %7 = icmp eq i64 %6, 1025
  ret i1 %7
}

; Function Attrs: mustprogress nounwind uwtable
define hidden noundef i32 @_ZN14StackMapReader4chopEP16VerificationTypeii(ptr noundef nonnull align 8 dereferenceable(56) %0, ptr noundef %1, i32 noundef %2, i32 noundef %3) #1 align 2 {
  %5 = alloca i32, align 4
  %6 = alloca ptr, align 8
  %7 = alloca ptr, align 8
  %8 = alloca i32, align 4
  %9 = alloca i32, align 4
  %10 = alloca i32, align 4
  %11 = alloca i32, align 4
  store ptr %0, ptr %6, align 8
  store ptr %1, ptr %7, align 8
  store i32 %2, ptr %8, align 4
  store i32 %3, ptr %9, align 4
  %12 = load ptr, ptr %7, align 8
  %13 = icmp eq ptr %12, null
  br i1 %13, label %14, label %15

14:                                               ; preds = %4
  store i32 -1, ptr %5, align 4
  br label %50

15:                                               ; preds = %4
  %16 = load i32, ptr %8, align 4
  %17 = sub nsw i32 %16, 1
  store i32 %17, ptr %10, align 4
  store i32 0, ptr %11, align 4
  br label %18

18:                                               ; preds = %44, %15
  %19 = load i32, ptr %11, align 4
  %20 = load i32, ptr %9, align 4
  %21 = icmp slt i32 %19, %20
  br i1 %21, label %22, label %47

22:                                               ; preds = %18
  %23 = load ptr, ptr %7, align 8
  %24 = load i32, ptr %10, align 4
  %25 = sext i32 %24 to i64
  %26 = getelementptr inbounds %class.VerificationType, ptr %23, i64 %25
  %27 = call noundef zeroext i1 @_ZNK16VerificationType16is_category2_2ndEv(ptr noundef nonnull align 8 dereferenceable(8) %26)
  br i1 %27, label %28, label %31

28:                                               ; preds = %22
  %29 = load i32, ptr %10, align 4
  %30 = sub nsw i32 %29, 2
  store i32 %30, ptr %10, align 4
  br label %34

31:                                               ; preds = %22
  %32 = load i32, ptr %10, align 4
  %33 = add nsw i32 %32, -1
  store i32 %33, ptr %10, align 4
  br label %34

34:                                               ; preds = %31, %28
  %35 = load i32, ptr %10, align 4
  %36 = icmp slt i32 %35, 0
  br i1 %36, label %37, label %43

37:                                               ; preds = %34
  %38 = load i32, ptr %11, align 4
  %39 = load i32, ptr %9, align 4
  %40 = sub nsw i32 %39, 1
  %41 = icmp slt i32 %38, %40
  br i1 %41, label %42, label %43

42:                                               ; preds = %37
  store i32 -1, ptr %5, align 4
  br label %50

43:                                               ; preds = %37, %34
  br label %44

44:                                               ; preds = %43
  %45 = load i32, ptr %11, align 4
  %46 = add nsw i32 %45, 1
  store i32 %46, ptr %11, align 4
  br label %18, !llvm.loop !17

47:                                               ; preds = %18
  %48 = load i32, ptr %10, align 4
  %49 = add nsw i32 %48, 1
  store i32 %49, ptr %5, align 4
  br label %50

50:                                               ; preds = %47, %42, %14
  %51 = load i32, ptr %5, align 4
  ret i32 %51
}