; Function Attrs: mustprogress nofree norecurse nosync nounwind willreturn memory(argmem: read) uwtable
define hidden noundef range(i32 -2147483647, -2147483648) i32 @_ZN14StackMapReader4chopEP16VerificationTypeii(ptr nocapture nonnull readnone align 8 %0, ptr noundef readonly %1, i32 noundef %2, i32 noundef %3) local_unnamed_addr #4 align 2 {
  %5 = icmp eq ptr %1, null
  br i1 %5, label %.loopexit, label %6

6:                                                ; preds = %4
  %7 = icmp sgt i32 %3, 0
  br i1 %7, label %.lr.ph, label %.loopexit

.lr.ph:                                           ; preds = %6
  %8 = add nsw i32 %2, -1
  %9 = add nsw i32 %3, -1
  br label %12

10:                                               ; preds = %12
  %11 = add nuw nsw i32 %.020, 1
  %exitcond.not = icmp eq i32 %11, %3
  br i1 %exitcond.not, label %._crit_edge.loopexit, label %12, !llvm.loop !20

12:                                               ; preds = %.lr.ph, %10
  %.020 = phi i32 [ 0, %.lr.ph ], [ %11, %10 ]
  %.01319 = phi i32 [ %8, %.lr.ph ], [ %.1, %10 ]
  %13 = sext i32 %.01319 to i64
  %14 = getelementptr inbounds %class.VerificationType, ptr %1, i64 %13
  %15 = load i64, ptr %14, align 8
  %16 = and i64 %15, 1025
  %17 = icmp eq i64 %16, 1025
  %.1.v = select i1 %17, i32 -2, i32 -1
  %.1 = add nsw i32 %.1.v, %.01319
  %18 = icmp slt i32 %.1, 0
  %19 = icmp slt i32 %.020, %9
  %or.cond = select i1 %18, i1 %19, i1 false
  br i1 %or.cond, label %.loopexit, label %10

._crit_edge.loopexit:                             ; preds = %10
  %20 = add nsw i32 %.1, 1
  br label %.loopexit

.loopexit:                                        ; preds = %12, %6, %._crit_edge.loopexit, %4
  %.014 = phi i32 [ -1, %4 ], [ %2, %6 ], [ %20, %._crit_edge.loopexit ], [ -1, %12 ]
  ret i32 %.014
}